target datalayout = "e-m:e-p270:32:32-p271:32:32-p272:64:64-i64:64-i128:128-f80:128-n8:16:32:64-S128"
target triple = "x86_64-pc-linux-gnu"

%struct.Gia_Man_t_ = type { ptr, ptr, i32, i32, i32, i32, ptr, ptr, i32, i32, i32, ptr, ptr, %struct.Vec_Int_t_, %struct.Vec_Int_t_, i32, i32, i32, %struct.Vec_Int_t_, ptr, ptr, ptr, i32, i32, i32, i32, ptr, ptr, ptr, ptr, ptr, i32, i32, ptr, i32, ptr, ptr, ptr, ptr, ptr, ptr, ptr, ptr, ptr, ptr, ptr, ptr, ptr, ptr, ptr, ptr, ptr, ptr, %struct.Vec_Int_t_, %struct.Vec_Int_t_, ptr, ptr, ptr, ptr, ptr, ptr, ptr, ptr, ptr, ptr, ptr, ptr, ptr, ptr, ptr, ptr, ptr, ptr, ptr, ptr, ptr, i32, float, float, ptr, ptr, i32, ptr, ptr, ptr, ptr, ptr, ptr, ptr, ptr, ptr, ptr, ptr, ptr, ptr, ptr, ptr, i64, i64, ptr, ptr, i32, i32, i32, i32, i32, i32, i32, i32, i32, i32, i32, i32, ptr, ptr, ptr, ptr, ptr, ptr, ptr, ptr, i32, i32, i32, ptr, i32, i32, ptr, ptr, ptr, ptr, ptr, ptr, i32, i32, ptr, %struct.Vec_Int_t_, %struct.Vec_Int_t_, %struct.Vec_Int_t_, ptr, ptr, ptr, i32, i32, i32, i32, ptr, ptr, ptr, ptr, ptr }
%struct.Vec_Int_t_ = type { i32, i32, ptr }
%struct.Gia_Obj_t_ = type <{ i64, i32 }>

; Function Attrs: inlinehint nounwind uwtable
define internal ptr @Gia_ManObj(ptr noundef %0, i32 noundef %1) #1 {
  %3 = alloca ptr, align 8
  %4 = alloca i32, align 4
  store ptr %0, ptr %3, align 8, !tbaa !3
  store i32 %1, ptr %4, align 4, !tbaa !33
  %5 = load ptr, ptr %3, align 8, !tbaa !3
  %6 = getelementptr inbounds nuw %struct.Gia_Man_t_, ptr %5, i32 0, i32 6
  %7 = load ptr, ptr %6, align 8, !tbaa !43
  %8 = load i32, ptr %4, align 4, !tbaa !33
  %9 = sext i32 %8 to i64
  %10 = getelementptr inbounds %struct.Gia_Obj_t_, ptr %7, i64 %9
  ret ptr %10
}

; Function Attrs: inlinehint nounwind uwtable
define internal i32 @Gia_ObjNext(ptr noundef %0, i32 noundef %1) #1 {
  %3 = alloca ptr, align 8
  %4 = alloca i32, align 4
  store ptr %0, ptr %3, align 8, !tbaa !3
  store i32 %1, ptr %4, align 4, !tbaa !33
  %5 = load ptr, ptr %3, align 8, !tbaa !3
  %6 = getelementptr inbounds nuw %struct.Gia_Man_t_, ptr %5, i32 0, i32 28
  %7 = load ptr, ptr %6, align 8, !tbaa !56
  %8 = load i32, ptr %4, align 4, !tbaa !33
  %9 = sext i32 %8 to i64
  %10 = getelementptr inbounds i32, ptr %7, i64 %9
  %11 = load i32, ptr %10, align 4, !tbaa !33
  ret i32 %11
}

; Function Attrs: nounwind uwtable
define ptr @Gia_MakeRandomChoice(ptr noundef %0, i32 noundef %1) #0 {
  %3 = alloca ptr, align 8
  %4 = alloca i32, align 4
  %5 = alloca i32, align 4
  %6 = alloca i32, align 4
  %7 = alloca i32, align 4
  store ptr %0, ptr %3, align 8, !tbaa !3
  store i32 %1, ptr %4, align 4, !tbaa !33
  call void @llvm.lifetime.start.p0(i64 4, ptr %5) #12
  call void @llvm.lifetime.start.p0(i64 4, ptr %6) #12
  call void @llvm.lifetime.start.p0(i64 4, ptr %7) #12
  store i32 0, ptr %7, align 4, !tbaa !33
  %8 = load i32, ptr %4, align 4, !tbaa !33
  store i32 %8, ptr %5, align 4, !tbaa !33
  br label %9

9:                                                ; preds = %15, %2
  %10 = load i32, ptr %5, align 4, !tbaa !33
  %11 = icmp sgt i32 %10, 0
  br i1 %11, label %12, label %19

12:                                               ; preds = %9
  %13 = load i32, ptr %7, align 4, !tbaa !33
  %14 = add nsw i32 %13, 1
  store i32 %14, ptr %7, align 4, !tbaa !33
  br label %15

15:                                               ; preds = %12
  %16 = load ptr, ptr %3, align 8, !tbaa !3
  %17 = load i32, ptr %5, align 4, !tbaa !33
  %18 = call i32 @Gia_ObjNext(ptr noundef %16, i32 noundef %17)
  store i32 %18, ptr %5, align 4, !tbaa !33
  br label %9, !llvm.loop !103

19:                                               ; preds = %9
  %20 = call i32 @rand() #12
  %21 = load i32, ptr %7, align 4, !tbaa !33
  %22 = srem i32 %20, %21
  store i32 %22, ptr %6, align 4, !tbaa !33
  store i32 0, ptr %7, align 4, !tbaa !33
  %23 = load i32, ptr %4, align 4, !tbaa !33
  store i32 %23, ptr %5, align 4, !tbaa !33
  br label %24

24:                                               ; preds = %34, %19
  %25 = load i32, ptr %5, align 4, !tbaa !33
  %26 = icmp sgt i32 %25, 0
  br i1 %26, label %27, label %38

27:                                               ; preds = %24
  %28 = load i32, ptr %7, align 4, !tbaa !33
  %29 = add nsw i32 %28, 1
  store i32 %29, ptr %7, align 4, !tbaa !33
  %30 = load i32, ptr %6, align 4, !tbaa !33
  %31 = icmp eq i32 %28, %30
  br i1 %31, label %32, label %33

32:                                               ; preds = %27
  br label %38

33:                                               ; preds = %27
  br label %34

34:                                               ; preds = %33
  %35 = load ptr, ptr %3, align 8, !tbaa !3
  %36 = load i32, ptr %5, align 4, !tbaa !33
  %37 = call i32 @Gia_ObjNext(ptr noundef %35, i32 noundef %36)
  store i32 %37, ptr %5, align 4, !tbaa !33
  br label %24, !llvm.loop !104

38:                                               ; preds = %32, %24
  %39 = load ptr, ptr %3, align 8, !tbaa !3
  %40 = load i32, ptr %5, align 4, !tbaa !33
  %41 = call ptr @Gia_ManObj(ptr noundef %39, i32 noundef %40)
  call void @llvm.lifetime.end.p0(i64 4, ptr %7) #12
  call void @llvm.lifetime.end.p0(i64 4, ptr %6) #12
  call void @llvm.lifetime.end.p0(i64 4, ptr %5) #12
  ret ptr %41
}