; Function Attrs: nounwind uwtable
define ptr @Gia_MakeRandomChoice(ptr noundef readonly captures(none) %0, i32 noundef %1) local_unnamed_addr #0 {
  %3 = icmp sgt i32 %1, 0
  br i1 %3, label %.lr.ph, label %._crit_edge

.lr.ph:                                           ; preds = %2
  %4 = getelementptr i8, ptr %0, i64 200
  %.val16 = load ptr, ptr %4, align 8, !tbaa !54
  br label %5

5:                                                ; preds = %.lr.ph, %5
  %.018 = phi i32 [ 0, %.lr.ph ], [ %6, %5 ]
  %.01317 = phi i32 [ %1, %.lr.ph ], [ %9, %5 ]
  %6 = add nuw nsw i32 %.018, 1
  %7 = zext nneg i32 %.01317 to i64
  %8 = getelementptr inbounds nuw i32, ptr %.val16, i64 %7
  %9 = load i32, ptr %8, align 4, !tbaa !32
  %10 = icmp sgt i32 %9, 0
  br i1 %10, label %5, label %._crit_edge, !llvm.loop !97

._crit_edge:                                      ; preds = %5, %2
  %.0.lcssa = phi i32 [ 0, %2 ], [ %6, %5 ]
  %11 = tail call i32 @rand() #31
  %12 = srem i32 %11, %.0.lcssa
  %13 = icmp slt i32 %1, 1
  %14 = icmp eq i32 %12, 0
  %or.cond19 = select i1 %13, i1 true, i1 %14
  br i1 %or.cond19, label %._crit_edge24, label %.lr.ph23

.lr.ph23:                                         ; preds = %._crit_edge
  %15 = getelementptr i8, ptr %0, i64 200
  %.val15 = load ptr, ptr %15, align 8, !tbaa !54
  br label %16

16:                                               ; preds = %.lr.ph23, %16
  %.121 = phi i32 [ 0, %.lr.ph23 ], [ %17, %16 ]
  %.11420 = phi i32 [ %1, %.lr.ph23 ], [ %20, %16 ]
  %17 = add nuw nsw i32 %.121, 1
  %18 = zext nneg i32 %.11420 to i64
  %19 = getelementptr inbounds nuw i32, ptr %.val15, i64 %18
  %20 = load i32, ptr %19, align 4, !tbaa !32
  %21 = icmp slt i32 %20, 1
  %22 = icmp eq i32 %17, %12
  %or.cond = select i1 %21, i1 true, i1 %22
  br i1 %or.cond, label %._crit_edge24, label %16, !llvm.loop !98

._crit_edge24:                                    ; preds = %16, %._crit_edge
  %.114.lcssa = phi i32 [ %1, %._crit_edge ], [ %20, %16 ]
  %23 = getelementptr i8, ptr %0, i64 32
  %.val = load ptr, ptr %23, align 8, !tbaa !36
  %24 = sext i32 %.114.lcssa to i64
  %25 = getelementptr inbounds %struct.Gia_Obj_t_, ptr %.val, i64 %24
  ret ptr %25
}